
case3.o:     file format elf32-littleriscv


Disassembly of section .data:

00000000 <_start>:
   0:	7ff00113          	li	sp,2047
   4:	ff010113          	addi	sp,sp,-16
   8:	00112623          	sw	ra,12(sp)
   c:	00812423          	sw	s0,8(sp)
  10:	01010413          	addi	s0,sp,16
  14:	00a00593          	li	a1,10
  18:	00000513          	li	a0,0
  1c:	00050293          	mv	t0,a0
  20:	1c800393          	li	t2,456
  24:	0072a023          	sw	t2,0(t0)
  28:	00428293          	addi	t0,t0,4
  2c:	04e00393          	li	t2,78
  30:	0072a023          	sw	t2,0(t0)
  34:	00428293          	addi	t0,t0,4
  38:	ce400393          	li	t2,-796
  3c:	0072a023          	sw	t2,0(t0)
  40:	00428293          	addi	t0,t0,4
  44:	1d400393          	li	t2,468
  48:	0072a023          	sw	t2,0(t0)
  4c:	00428293          	addi	t0,t0,4
  50:	00200393          	li	t2,2
  54:	0072a023          	sw	t2,0(t0)
  58:	00428293          	addi	t0,t0,4
  5c:	f8300393          	li	t2,-125
  60:	0072a023          	sw	t2,0(t0)
  64:	00428293          	addi	t0,t0,4
  68:	3da00393          	li	t2,986
  6c:	0072a023          	sw	t2,0(t0)
  70:	00428293          	addi	t0,t0,4
  74:	ebf00393          	li	t2,-321
  78:	0072a023          	sw	t2,0(t0)
  7c:	00428293          	addi	t0,t0,4
  80:	00400393          	li	t2,4
  84:	0072a023          	sw	t2,0(t0)
  88:	00428293          	addi	t0,t0,4
  8c:	00000393          	li	t2,0
  90:	0072a023          	sw	t2,0(t0)
  94:	00428293          	addi	t0,t0,4
  98:	020000ef          	jal	b8 <bubble_sort>
  9c:	00000793          	li	a5,0
  a0:	00078513          	mv	a0,a5
  a4:	00c12083          	lw	ra,12(sp)
  a8:	00812403          	lw	s0,8(sp)
  ac:	01010113          	addi	sp,sp,16
  b0:	00100193          	li	gp,1
  b4:	00008067          	ret

000000b8 <bubble_sort>:
  b8:	fd010113          	addi	sp,sp,-48
  bc:	02812423          	sw	s0,40(sp)
  c0:	03010413          	addi	s0,sp,48
  c4:	fca42e23          	sw	a0,-36(s0)
  c8:	fcb42c23          	sw	a1,-40(s0)
  cc:	fe042623          	sw	zero,-20(s0)
  d0:	0d80006f          	j	1a8 <.L2>

000000d4 <.L8>:
  d4:	fe042223          	sw	zero,-28(s0)
  d8:	fe042423          	sw	zero,-24(s0)
  dc:	0a00006f          	j	17c <.L3>

000000e0 <.L5>:
  e0:	fe842783          	lw	a5,-24(s0)
  e4:	00279793          	slli	a5,a5,0x2
  e8:	fdc42703          	lw	a4,-36(s0)
  ec:	00f707b3          	add	a5,a4,a5
  f0:	0007a703          	lw	a4,0(a5)
  f4:	fe842783          	lw	a5,-24(s0)
  f8:	00178793          	addi	a5,a5,1
  fc:	00279793          	slli	a5,a5,0x2
 100:	fdc42683          	lw	a3,-36(s0)
 104:	00f687b3          	add	a5,a3,a5
 108:	0007a783          	lw	a5,0(a5)
 10c:	06e7d263          	bge	a5,a4,170 <.L4>
 110:	fe842783          	lw	a5,-24(s0)
 114:	00178793          	addi	a5,a5,1
 118:	00279793          	slli	a5,a5,0x2
 11c:	fdc42703          	lw	a4,-36(s0)
 120:	00f707b3          	add	a5,a4,a5
 124:	0007a783          	lw	a5,0(a5)
 128:	fef42023          	sw	a5,-32(s0)
 12c:	fe842783          	lw	a5,-24(s0)
 130:	00279793          	slli	a5,a5,0x2
 134:	fdc42703          	lw	a4,-36(s0)
 138:	00f70733          	add	a4,a4,a5
 13c:	fe842783          	lw	a5,-24(s0)
 140:	00178793          	addi	a5,a5,1
 144:	00279793          	slli	a5,a5,0x2
 148:	fdc42683          	lw	a3,-36(s0)
 14c:	00f687b3          	add	a5,a3,a5
 150:	00072703          	lw	a4,0(a4)
 154:	00e7a023          	sw	a4,0(a5)
 158:	fe842783          	lw	a5,-24(s0)
 15c:	00279793          	slli	a5,a5,0x2
 160:	fdc42703          	lw	a4,-36(s0)
 164:	00f707b3          	add	a5,a4,a5
 168:	fe042703          	lw	a4,-32(s0)
 16c:	00e7a023          	sw	a4,0(a5)

00000170 <.L4>:
 170:	fe842783          	lw	a5,-24(s0)
 174:	00178793          	addi	a5,a5,1
 178:	fef42423          	sw	a5,-24(s0)

0000017c <.L3>:
 17c:	fd842703          	lw	a4,-40(s0)
 180:	fec42783          	lw	a5,-20(s0)
 184:	40f707b3          	sub	a5,a4,a5
 188:	fff78793          	addi	a5,a5,-1
 18c:	fe842703          	lw	a4,-24(s0)
 190:	f4f748e3          	blt	a4,a5,e0 <.L5>
 194:	fe442783          	lw	a5,-28(s0)
 198:	02079063          	bnez	a5,1b8 <.L9>
 19c:	fec42783          	lw	a5,-20(s0)
 1a0:	00178793          	addi	a5,a5,1
 1a4:	fef42623          	sw	a5,-20(s0)

000001a8 <.L2>:
 1a8:	fec42703          	lw	a4,-20(s0)
 1ac:	fd842783          	lw	a5,-40(s0)
 1b0:	f2f742e3          	blt	a4,a5,d4 <.L8>
 1b4:	0080006f          	j	1bc <.L10>

000001b8 <.L9>:
 1b8:	00000013          	nop

000001bc <.L10>:
 1bc:	00000013          	nop
 1c0:	02812403          	lw	s0,40(sp)
 1c4:	03010113          	addi	sp,sp,48
 1c8:	00008067          	ret

Disassembly of section .riscv.attributes:

00000000 <.riscv.attributes>:
   0:	5e41                	.insn	2, 0x5e41
   2:	0000                	.insn	2, 0x
   4:	7200                	.insn	2, 0x7200
   6:	7369                	.insn	2, 0x7369
   8:	01007663          	bgeu	zero,a6,14 <.riscv.attributes+0x14>
   c:	0054                	.insn	2, 0x0054
   e:	0000                	.insn	2, 0x
  10:	7205                	.insn	2, 0x7205
  12:	3376                	.insn	2, 0x3376
  14:	6932                	.insn	2, 0x6932
  16:	7032                	.insn	2, 0x7032
  18:	5f31                	.insn	2, 0x5f31
  1a:	326d                	.insn	2, 0x326d
  1c:	3070                	.insn	2, 0x3070
  1e:	615f 7032 5f31      	.insn	6, 0x5f317032615f
  24:	3266                	.insn	2, 0x3266
  26:	3270                	.insn	2, 0x3270
  28:	645f 7032 5f32      	.insn	6, 0x5f327032645f
  2e:	697a                	.insn	2, 0x697a
  30:	32727363          	bgeu	tp,t2,356 <.L10+0x19a>
  34:	3070                	.insn	2, 0x3070
  36:	7a5f 6669 6e65      	.insn	6, 0x6e6566697a5f
  3c:	32696563          	bltu	s2,t1,366 <.L10+0x1aa>
  40:	3070                	.insn	2, 0x3070
  42:	7a5f 6d6d 6c75      	.insn	6, 0x6c756d6d7a5f
  48:	7031                	.insn	2, 0x7031
  4a:	5f30                	.insn	2, 0x5f30
  4c:	617a                	.insn	2, 0x617a
  4e:	6d61                	.insn	2, 0x6d61
  50:	3070316f          	jal	sp,3b56 <.L10+0x399a>
  54:	7a5f 6c61 7372      	.insn	6, 0x73726c617a5f
  5a:	30703163          	.insn	4, 0x30703163
	...
